target datalayout = "e-m:e-p270:32:32-p271:32:32-p272:64:64-i64:64-i128:128-f80:128-n8:16:32:64-S128"
target triple = "x86_64-pc-linux-gnu"

%"struct.std::_Rb_tree_key_compare" = type { %"struct.std::less" }
%"struct.std::less" = type { i8 }
%"struct.std::_Rb_tree_header" = type { %"struct.std::_Rb_tree_node_base", i64 }
%"struct.std::_Rb_tree_node_base" = type { i32, ptr, ptr, ptr }
%"struct.pkpy::Type" = type { i16 }
%"struct.pkpy::CodeEmitContext" = type { ptr, %"class.std::shared_ptr", %"class.std::shared_ptr.0", %"class.pkpy::stack_no_copy", i32, %"class.std::set", i32, i8, i32, %"class.std::map.13", %"class.std::map.21" }
%"class.std::shared_ptr" = type { %"class.std::__shared_ptr" }
%"class.std::__shared_ptr" = type { ptr, %"class.std::__shared_count" }
%"class.std::__shared_count" = type { ptr }
%"class.std::shared_ptr.0" = type { %"class.std::__shared_ptr.1" }
%"class.std::__shared_ptr.1" = type { ptr, %"class.std::__shared_count" }
%"class.pkpy::stack_no_copy" = type { %"class.pkpy::stack" }
%"class.pkpy::stack" = type { %"class.std::vector" }
%"class.std::vector" = type { %"struct.std::_Vector_base" }
%"struct.std::_Vector_base" = type { %"struct.std::_Vector_base<pkpy::unique_ptr_128<pkpy::Expr>, std::allocator<pkpy::unique_ptr_128<pkpy::Expr>>>::_Vector_impl" }
%"struct.std::_Vector_base<pkpy::unique_ptr_128<pkpy::Expr>, std::allocator<pkpy::unique_ptr_128<pkpy::Expr>>>::_Vector_impl" = type { %"struct.std::_Vector_base<pkpy::unique_ptr_128<pkpy::Expr>, std::allocator<pkpy::unique_ptr_128<pkpy::Expr>>>::_Vector_impl_data" }
%"struct.std::_Vector_base<pkpy::unique_ptr_128<pkpy::Expr>, std::allocator<pkpy::unique_ptr_128<pkpy::Expr>>>::_Vector_impl_data" = type { ptr, ptr, ptr }
%"class.std::set" = type { %"class.std::_Rb_tree.6" }
%"class.std::_Rb_tree.6" = type { %"struct.std::_Rb_tree<pkpy::Str, pkpy::Str, std::_Identity<pkpy::Str>, std::less<pkpy::Str>>::_Rb_tree_impl" }
%"struct.std::_Rb_tree<pkpy::Str, pkpy::Str, std::_Identity<pkpy::Str>, std::less<pkpy::Str>>::_Rb_tree_impl" = type { %"struct.std::_Rb_tree_key_compare.10", %"struct.std::_Rb_tree_header" }
%"struct.std::_Rb_tree_key_compare.10" = type { %"struct.std::less.11" }
%"struct.std::less.11" = type { i8 }
%"class.std::map.13" = type { %"class.std::_Rb_tree.14" }
%"class.std::_Rb_tree.14" = type { %"struct.std::_Rb_tree<void *, std::pair<void *const, int>, std::_Select1st<std::pair<void *const, int>>, std::less<void *>>::_Rb_tree_impl" }
%"struct.std::_Rb_tree<void *, std::pair<void *const, int>, std::_Select1st<std::pair<void *const, int>>, std::less<void *>>::_Rb_tree_impl" = type { %"struct.std::_Rb_tree_key_compare.18", %"struct.std::_Rb_tree_header" }
%"struct.std::_Rb_tree_key_compare.18" = type { %"struct.std::less.19" }
%"struct.std::less.19" = type { i8 }
%"class.std::map.21" = type { %"class.std::_Rb_tree.22" }
%"class.std::_Rb_tree.22" = type { %"struct.std::_Rb_tree<std::__cxx11::basic_string<char>, std::pair<const std::__cxx11::basic_string<char>, int>, std::_Select1st<std::pair<const std::__cxx11::basic_string<char>, int>>, std::less<void>>::_Rb_tree_impl" }
%"struct.std::_Rb_tree<std::__cxx11::basic_string<char>, std::pair<const std::__cxx11::basic_string<char>, int>, std::_Select1st<std::pair<const std::__cxx11::basic_string<char>, int>>, std::less<void>>::_Rb_tree_impl" = type { %"struct.std::_Rb_tree_key_compare.26", %"struct.std::_Rb_tree_header" }
%"struct.std::_Rb_tree_key_compare.26" = type { %"struct.std::less.27" }
%"struct.std::less.27" = type { i8 }
%"class.pkpy::VM" = type <{ ptr, ptr, %"struct.pkpy::ManagedHeap", %"struct.pkpy::ValueStack", %"struct.pkpy::CallStack", %"class.std::vector.118", %"struct.pkpy::NameDictImpl.123", %"class.std::map.127", %struct.anon, ptr, ptr, ptr, ptr, ptr, ptr, ptr, ptr, %"class.std::map.142", %"class.std::set.150", %"struct.pkpy::ImportContext", ptr, ptr, ptr, %"class.std::map.167", %"class.std::map.172", %"class.std::shared_ptr", ptr, ptr, ptr, ptr, i8, [7 x i8] }>
%"struct.pkpy::ManagedHeap" = type <{ %"class.std::vector.113", %"class.std::vector.113", ptr, ptr, ptr, i32, i32, i32, [4 x i8] }>
%"class.std::vector.113" = type { %"struct.std::_Vector_base.114" }
%"struct.std::_Vector_base.114" = type { %"struct.std::_Vector_base<pkpy::PyObject *, std::allocator<pkpy::PyObject *>>::_Vector_impl" }
%"struct.std::_Vector_base<pkpy::PyObject *, std::allocator<pkpy::PyObject *>>::_Vector_impl" = type { %"struct.std::_Vector_base<pkpy::PyObject *, std::allocator<pkpy::PyObject *>>::_Vector_impl_data" }
%"struct.std::_Vector_base<pkpy::PyObject *, std::allocator<pkpy::PyObject *>>::_Vector_impl_data" = type { ptr, ptr, ptr }
%"struct.pkpy::ValueStack" = type { [33024 x ptr], ptr, ptr }
%"struct.pkpy::CallStack" = type <{ ptr, i32, [4 x i8] }>
%"class.std::vector.118" = type { %"struct.std::_Vector_base.119" }
%"struct.std::_Vector_base.119" = type { %"struct.std::_Vector_base<pkpy::PyTypeInfo, std::allocator<pkpy::PyTypeInfo>>::_Vector_impl" }
%"struct.std::_Vector_base<pkpy::PyTypeInfo, std::allocator<pkpy::PyTypeInfo>>::_Vector_impl" = type { %"struct.std::_Vector_base<pkpy::PyTypeInfo, std::allocator<pkpy::PyTypeInfo>>::_Vector_impl_data" }
%"struct.std::_Vector_base<pkpy::PyTypeInfo, std::allocator<pkpy::PyTypeInfo>>::_Vector_impl_data" = type { ptr, ptr, ptr }
%"struct.pkpy::NameDictImpl.123" = type { %union.anon.124 }
%union.anon.124 = type { %"struct.pkpy::SmallNameDict.125" }
%"struct.pkpy::SmallNameDict.125" = type { i8, i16, [8 x %"struct.pkpy::StrName"], [8 x ptr] }
%"struct.pkpy::StrName" = type { i16 }
%"class.std::map.127" = type { %"class.std::_Rb_tree.128" }
%"class.std::_Rb_tree.128" = type { %"struct.std::_Rb_tree<pkpy::StrName, std::pair<const pkpy::StrName, pkpy::Str>, std::_Select1st<std::pair<const pkpy::StrName, pkpy::Str>>, std::less<pkpy::StrName>>::_Rb_tree_impl" }
%"struct.std::_Rb_tree<pkpy::StrName, std::pair<const pkpy::StrName, pkpy::Str>, std::_Select1st<std::pair<const pkpy::StrName, pkpy::Str>>, std::less<pkpy::StrName>>::_Rb_tree_impl" = type { %"struct.std::_Rb_tree_key_compare.132", %"struct.std::_Rb_tree_header" }
%"struct.std::_Rb_tree_key_compare.132" = type { %"struct.std::less.133" }
%"struct.std::less.133" = type { i8 }
%struct.anon = type { ptr, %"class.pkpy::stack_no_copy.135" }
%"class.pkpy::stack_no_copy.135" = type { %"class.pkpy::stack.136" }
%"class.pkpy::stack.136" = type { %"class.std::vector.137" }
%"class.std::vector.137" = type { %"struct.std::_Vector_base.138" }
%"struct.std::_Vector_base.138" = type { %"struct.std::_Vector_base<pkpy::ArgsView, std::allocator<pkpy::ArgsView>>::_Vector_impl" }
%"struct.std::_Vector_base<pkpy::ArgsView, std::allocator<pkpy::ArgsView>>::_Vector_impl" = type { %"struct.std::_Vector_base<pkpy::ArgsView, std::allocator<pkpy::ArgsView>>::_Vector_impl_data" }
%"struct.std::_Vector_base<pkpy::ArgsView, std::allocator<pkpy::ArgsView>>::_Vector_impl_data" = type { ptr, ptr, ptr }
%"class.std::map.142" = type { %"class.std::_Rb_tree.143" }
%"class.std::_Rb_tree.143" = type { %"struct.std::_Rb_tree<const std::type_index, std::pair<const std::type_index, pkpy::Type>, std::_Select1st<std::pair<const std::type_index, pkpy::Type>>, std::less<const std::type_index>>::_Rb_tree_impl" }
%"struct.std::_Rb_tree<const std::type_index, std::pair<const std::type_index, pkpy::Type>, std::_Select1st<std::pair<const std::type_index, pkpy::Type>>, std::less<const std::type_index>>::_Rb_tree_impl" = type { %"struct.std::_Rb_tree_key_compare.147", %"struct.std::_Rb_tree_header" }
%"struct.std::_Rb_tree_key_compare.147" = type { %"struct.std::less.148" }
%"struct.std::less.148" = type { i8 }
%"class.std::set.150" = type { %"class.std::_Rb_tree.151" }
%"class.std::_Rb_tree.151" = type { %"struct.std::_Rb_tree<pkpy::PyObject *, pkpy::PyObject *, std::_Identity<pkpy::PyObject *>, std::less<pkpy::PyObject *>>::_Rb_tree_impl" }
%"struct.std::_Rb_tree<pkpy::PyObject *, pkpy::PyObject *, std::_Identity<pkpy::PyObject *>, std::less<pkpy::PyObject *>>::_Rb_tree_impl" = type { %"struct.std::_Rb_tree_key_compare.155", %"struct.std::_Rb_tree_header" }
%"struct.std::_Rb_tree_key_compare.155" = type { %"struct.std::less.156" }
%"struct.std::less.156" = type { i8 }
%"struct.pkpy::ImportContext" = type { %"class.std::vector.158", %"class.std::vector.163" }
%"class.std::vector.158" = type { %"struct.std::_Vector_base.159" }
%"struct.std::_Vector_base.159" = type { %"struct.std::_Vector_base<pkpy::Str, std::allocator<pkpy::Str>>::_Vector_impl" }
%"struct.std::_Vector_base<pkpy::Str, std::allocator<pkpy::Str>>::_Vector_impl" = type { %"struct.std::_Vector_base<pkpy::Str, std::allocator<pkpy::Str>>::_Vector_impl_data" }
%"struct.std::_Vector_base<pkpy::Str, std::allocator<pkpy::Str>>::_Vector_impl_data" = type { ptr, ptr, ptr }
%"class.std::vector.163" = type { %"struct.std::_Bvector_base" }
%"struct.std::_Bvector_base" = type { %"struct.std::_Bvector_base<std::allocator<bool>>::_Bvector_impl" }
%"struct.std::_Bvector_base<std::allocator<bool>>::_Bvector_impl" = type { %"struct.std::_Bvector_base<std::allocator<bool>>::_Bvector_impl_data" }
%"struct.std::_Bvector_base<std::allocator<bool>>::_Bvector_impl_data" = type { %"struct.std::_Bit_iterator", %"struct.std::_Bit_iterator", ptr }
%"struct.std::_Bit_iterator" = type { %"struct.std::_Bit_iterator_base.base", [4 x i8] }
%"struct.std::_Bit_iterator_base.base" = type <{ ptr, i32 }>
%"class.std::map.167" = type { %"class.std::_Rb_tree.168" }
%"class.std::_Rb_tree.168" = type { %"struct.std::_Rb_tree<std::basic_string_view<char>, std::pair<const std::basic_string_view<char>, std::shared_ptr<pkpy::CodeObject>>, std::_Select1st<std::pair<const std::basic_string_view<char>, std::shared_ptr<pkpy::CodeObject>>>, std::less<std::basic_string_view<char>>>::_Rb_tree_impl" }
%"struct.std::_Rb_tree<std::basic_string_view<char>, std::pair<const std::basic_string_view<char>, std::shared_ptr<pkpy::CodeObject>>, std::_Select1st<std::pair<const std::basic_string_view<char>, std::shared_ptr<pkpy::CodeObject>>>, std::less<std::basic_string_view<char>>>::_Rb_tree_impl" = type { %"struct.std::_Rb_tree_key_compare", %"struct.std::_Rb_tree_header" }
%"class.std::map.172" = type { %"class.std::_Rb_tree.173" }
%"class.std::_Rb_tree.173" = type { %"struct.std::_Rb_tree<std::basic_string_view<char>, std::pair<const std::basic_string_view<char>, pkpy::PyObject *>, std::_Select1st<std::pair<const std::basic_string_view<char>, pkpy::PyObject *>>, std::less<std::basic_string_view<char>>>::_Rb_tree_impl" }
%"struct.std::_Rb_tree<std::basic_string_view<char>, std::pair<const std::basic_string_view<char>, pkpy::PyObject *>, std::_Select1st<std::pair<const std::basic_string_view<char>, pkpy::PyObject *>>, std::less<std::basic_string_view<char>>>::_Rb_tree_impl" = type { %"struct.std::_Rb_tree_key_compare", %"struct.std::_Rb_tree_header" }
%"struct.pkpy::Expr.base" = type <{ ptr, i32 }>
%"struct.pkpy::Expr" = type <{ ptr, i32, [4 x i8] }>
%"struct.pkpy::ImagExpr" = type { %"struct.pkpy::Expr.base", double }

@_ZN4pkpy2VM8tp_floatE = linkonce_odr constant %"struct.pkpy::Type" { i16 3 }, comdat, align 2

; Function Attrs: mustprogress uwtable
define linkonce_odr noundef ptr @_ZN4pkpy6py_varIRdEEPNS_8PyObjectEPNS_2VMEOT_(ptr noundef %0, ptr noundef nonnull align 8 dereferenceable(8) %1) #4 comdat {
  %3 = alloca ptr, align 8
  %4 = alloca ptr, align 8
  %5 = alloca double, align 8
  %6 = alloca %"struct.pkpy::Type", align 2
  store ptr %0, ptr %3, align 8
  store ptr %1, ptr %4, align 8
  %7 = load ptr, ptr %4, align 8
  %8 = load double, ptr %7, align 8
  store double %8, ptr %5, align 8
  %9 = load ptr, ptr %3, align 8
  %10 = getelementptr inbounds %"class.pkpy::VM", ptr %9, i32 0, i32 2
  call void @llvm.memcpy.p0.p0.i64(ptr align 2 %6, ptr align 2 @_ZN4pkpy2VM8tp_floatE, i64 2, i1 false)
  %11 = getelementptr inbounds %"struct.pkpy::Type", ptr %6, i32 0, i32 0
  %12 = load i16, ptr %11, align 2
  %13 = call noundef ptr @_ZN4pkpy11ManagedHeap5gcnewIdJRdEEEPNS_8PyObjectENS_4TypeEDpOT0_(ptr noundef nonnull align 8 dereferenceable(84) %10, i16 %12, ptr noundef nonnull align 8 dereferenceable(8) %5)
  ret ptr %13
}

; Function Attrs: mustprogress uwtable
define void @_ZN4pkpy8ImagExpr5emit_EPNS_15CodeEmitContextE(ptr noundef nonnull align 8 dereferenceable(24) %0, ptr noundef %1) unnamed_addr #4 align 2 {
  %3 = alloca ptr, align 8
  %4 = alloca ptr, align 8
  %5 = alloca ptr, align 8
  store ptr %0, ptr %3, align 8
  store ptr %1, ptr %4, align 8
  %6 = load ptr, ptr %3, align 8
  %7 = load ptr, ptr %4, align 8
  %8 = getelementptr inbounds %"struct.pkpy::CodeEmitContext", ptr %7, i32 0, i32 0
  %9 = load ptr, ptr %8, align 8
  store ptr %9, ptr %5, align 8
  %10 = load ptr, ptr %4, align 8
  %11 = load ptr, ptr %4, align 8
  %12 = load ptr, ptr %5, align 8
  %13 = getelementptr inbounds %"struct.pkpy::ImagExpr", ptr %6, i32 0, i32 1
  %14 = call noundef ptr @_ZN4pkpy6py_varIRdEEPNS_8PyObjectEPNS_2VMEOT_(ptr noundef %12, ptr noundef nonnull align 8 dereferenceable(8) %13)
  %15 = call noundef i32 @_ZN4pkpy15CodeEmitContext9add_constEPNS_8PyObjectE(ptr noundef nonnull align 8 dereferenceable(232) %11, ptr noundef %14)
  %16 = trunc i32 %15 to i16
  %17 = getelementptr inbounds %"struct.pkpy::Expr", ptr %6, i32 0, i32 1
  %18 = load i32, ptr %17, align 8
  %19 = call noundef i32 @_ZN4pkpy15CodeEmitContext5emit_ENS_6OpcodeEtib(ptr noundef nonnull align 8 dereferenceable(232) %10, i8 noundef zeroext 6, i16 noundef zeroext %16, i32 noundef %18, i1 noundef zeroext false)
  %20 = load ptr, ptr %4, align 8
  %21 = getelementptr inbounds %"struct.pkpy::Expr", ptr %6, i32 0, i32 1
  %22 = load i32, ptr %21, align 8
  %23 = call noundef i32 @_ZN4pkpy15CodeEmitContext5emit_ENS_6OpcodeEtib(ptr noundef nonnull align 8 dereferenceable(232) %20, i8 noundef zeroext 36, i16 noundef zeroext 0, i32 noundef %22, i1 noundef zeroext false)
  ret void
}