; Function Attrs: mustprogress uwtable
define void @_ZN4pkpy8ImagExpr5emit_EPNS_15CodeEmitContextE(ptr noundef nonnull readonly align 8 captures(none) dereferenceable(24) %0, ptr noundef %1) unnamed_addr #5 align 2 {
  %3 = alloca double, align 8
  %4 = load ptr, ptr %1, align 8
  %5 = getelementptr inbounds nuw i8, ptr %0, i64 16
  call void @llvm.lifetime.start.p0(i64 8, ptr nonnull %3)
  %6 = load double, ptr %5, align 8
  store double %6, ptr %3, align 8
  %7 = getelementptr inbounds nuw i8, ptr %4, i64 16
  %8 = call noundef ptr @_ZN4pkpy11ManagedHeap5gcnewIdJRdEEEPNS_8PyObjectENS_4TypeEDpOT0_(ptr noundef nonnull align 8 dereferenceable(84) %7, i16 3, ptr noundef nonnull align 8 dereferenceable(8) %3)
  call void @llvm.lifetime.end.p0(i64 8, ptr nonnull %3)
  %9 = call noundef i32 @_ZN4pkpy15CodeEmitContext9add_constEPNS_8PyObjectE(ptr noundef nonnull align 8 dereferenceable(232) %1, ptr noundef %8)
  %10 = trunc i32 %9 to i16
  %11 = getelementptr inbounds nuw i8, ptr %0, i64 8
  %12 = load i32, ptr %11, align 8
  %13 = call noundef i32 @_ZN4pkpy15CodeEmitContext5emit_ENS_6OpcodeEtib(ptr noundef nonnull align 8 dereferenceable(232) %1, i8 noundef zeroext 6, i16 noundef zeroext %10, i32 noundef %12, i1 noundef zeroext false)
  %14 = load i32, ptr %11, align 8
  %15 = call noundef i32 @_ZN4pkpy15CodeEmitContext5emit_ENS_6OpcodeEtib(ptr noundef nonnull align 8 dereferenceable(232) %1, i8 noundef zeroext 36, i16 noundef zeroext 0, i32 noundef %14, i1 noundef zeroext false)
  ret void
}